; Function Attrs: nounwind ssp uwtable
define dso_local i32 @crypto_aead_aes256gcm_decrypt(ptr noundef %0, ptr noundef writeonly captures(address_is_null) %1, ptr noundef readnone captures(none) %2, ptr noundef nonnull %3, i64 noundef %4, ptr noundef captures(address_is_null) %5, i64 noundef %6, ptr noundef nonnull readonly captures(none) %7, ptr noundef nonnull readonly captures(none) %8) local_unnamed_addr #3 {
  %10 = alloca %struct.crypto_aead_aes256gcm_state_, align 16
  call void @llvm.lifetime.start.p0(i64 512, ptr nonnull %10) #14
  tail call void @llvm.prefetch.p0(ptr %0, i32 0, i32 2, i32 1)
  tail call void @llvm.prefetch.p0(ptr nonnull %3, i32 0, i32 2, i32 1)
  tail call void @llvm.prefetch.p0(ptr %5, i32 0, i32 2, i32 1)
  %11 = call i32 @crypto_aead_aes256gcm_beforenm(ptr noundef %10, ptr noundef %8)
  %12 = icmp ugt i64 %4, 15
  br i1 %12, label %13, label %18

13:                                               ; preds = %9
  %14 = add i64 %4, -16
  %15 = getelementptr i8, ptr %3, i64 %4
  %16 = getelementptr i8, ptr %15, i64 -16
  %17 = call i32 @crypto_aead_aes256gcm_decrypt_detached_afternm(ptr noundef %0, ptr readnone poison, ptr noundef nonnull %3, i64 noundef %14, ptr noundef %16, ptr noundef %5, i64 noundef %6, ptr noundef nonnull readonly %7, ptr noundef nonnull readonly %10)
  br label %18

18:                                               ; preds = %13, %9
  %.0.i = phi i32 [ %17, %13 ], [ -1, %9 ]
  %.not.i = icmp eq ptr %1, null
  br i1 %.not.i, label %crypto_aead_aes256gcm_decrypt_afternm.exit, label %19

19:                                               ; preds = %18
  %20 = icmp eq i32 %.0.i, 0
  %21 = add i64 %4, -16
  %spec.select.i = select i1 %20, i64 %21, i64 0
  store i64 %spec.select.i, ptr %1, align 8
  br label %crypto_aead_aes256gcm_decrypt_afternm.exit

crypto_aead_aes256gcm_decrypt_afternm.exit:       ; preds = %18, %19
  call void @sodium_memzero(ptr noundef nonnull %10, i64 noundef 512) #14
  call void @llvm.lifetime.end.p0(i64 512, ptr nonnull %10) #14
  ret i32 %.0.i
}